target datalayout = "e-m:e-p270:32:32-p271:32:32-p272:64:64-i64:64-i128:128-f80:128-n8:16:32:64-S128"
target triple = "x86_64-pc-linux-gnu"

%struct._NativePrimitive = type { ptr, ptr, ptr, ptr, %union.anon, %union.anon, i32, i32 }
%union.anon = type { ptr }

; Function Attrs: nounwind uwtable
define void @Java_sun_java2d_loops_DrawGlyphListAA_DrawGlyphListAA(ptr noundef %0, ptr noundef %1, ptr noundef %2, ptr noundef %3, ptr noundef %4, i32 noundef %5, i32 noundef %6) #0 {
  %8 = alloca ptr, align 8
  %9 = alloca ptr, align 8
  %10 = alloca ptr, align 8
  %11 = alloca ptr, align 8
  %12 = alloca ptr, align 8
  %13 = alloca i32, align 4
  %14 = alloca i32, align 4
  %15 = alloca i32, align 4
  %16 = alloca i32, align 4
  %17 = alloca ptr, align 8
  %18 = alloca ptr, align 8
  store ptr %0, ptr %8, align 8
  store ptr %1, ptr %9, align 8
  store ptr %2, ptr %10, align 8
  store ptr %3, ptr %11, align 8
  store ptr %4, ptr %12, align 8
  store i32 %5, ptr %13, align 4
  store i32 %6, ptr %14, align 4
  %19 = load ptr, ptr %8, align 8
  %20 = load ptr, ptr %9, align 8
  %21 = call ptr @GetNativePrim(ptr noundef %19, ptr noundef %20)
  store ptr %21, ptr %18, align 8
  %22 = icmp eq ptr %21, null
  br i1 %22, label %23, label %24

23:                                               ; preds = %7
  br label %51

24:                                               ; preds = %7
  %25 = load ptr, ptr %8, align 8
  %26 = load ptr, ptr %12, align 8
  %27 = load i32, ptr %13, align 4
  %28 = load i32, ptr %14, align 4
  %29 = call ptr @setupBlitVector(ptr noundef %25, ptr noundef %26, i32 noundef %27, i32 noundef %28)
  store ptr %29, ptr %17, align 8
  %30 = icmp eq ptr %29, null
  br i1 %30, label %31, label %32

31:                                               ; preds = %24
  br label %51

32:                                               ; preds = %24
  %33 = load ptr, ptr %8, align 8
  %34 = load ptr, ptr %10, align 8
  %35 = call i32 @GrPrim_Sg2dGetPixel(ptr noundef %33, ptr noundef %34)
  store i32 %35, ptr %15, align 4
  %36 = load ptr, ptr %8, align 8
  %37 = load ptr, ptr %10, align 8
  %38 = call i32 @GrPrim_Sg2dGetEaRGB(ptr noundef %36, ptr noundef %37)
  store i32 %38, ptr %16, align 4
  %39 = load ptr, ptr %8, align 8
  %40 = load ptr, ptr %9, align 8
  %41 = load ptr, ptr %10, align 8
  %42 = load ptr, ptr %11, align 8
  %43 = load ptr, ptr %17, align 8
  %44 = load i32, ptr %15, align 4
  %45 = load i32, ptr %16, align 4
  %46 = load ptr, ptr %18, align 8
  %47 = load ptr, ptr %18, align 8
  %48 = getelementptr inbounds %struct._NativePrimitive, ptr %47, i32 0, i32 4
  %49 = load ptr, ptr %48, align 8
  call void @drawGlyphList(ptr noundef %39, ptr noundef %40, ptr noundef %41, ptr noundef %42, ptr noundef %43, i32 noundef %44, i32 noundef %45, ptr noundef %46, ptr noundef %49)
  %50 = load ptr, ptr %17, align 8
  call void @free(ptr noundef %50) #8
  br label %51

51:                                               ; preds = %32, %31, %23
  ret void
}