; Function Attrs: nounwind uwtable
define void @Java_sun_java2d_loops_DrawGlyphListAA_DrawGlyphListAA(ptr noundef %0, ptr noundef %1, ptr noundef %2, ptr noundef %3, ptr noundef %4, i32 noundef %5, i32 noundef %6) local_unnamed_addr #0 {
  %8 = tail call ptr @GetNativePrim(ptr noundef %0, ptr noundef %1) #10
  %9 = icmp eq ptr %8, null
  br i1 %9, label %18, label %10

10:                                               ; preds = %7
  %11 = tail call ptr @setupBlitVector(ptr noundef %0, ptr noundef %4, i32 noundef %5, i32 noundef %6)
  %12 = icmp eq ptr %11, null
  br i1 %12, label %18, label %13

13:                                               ; preds = %10
  %14 = tail call i32 @GrPrim_Sg2dGetPixel(ptr noundef %0, ptr noundef %2) #10
  %15 = tail call i32 @GrPrim_Sg2dGetEaRGB(ptr noundef %0, ptr noundef %2) #10
  %16 = getelementptr inbounds i8, ptr %8, i64 32
  %17 = load ptr, ptr %16, align 8
  tail call fastcc void @drawGlyphList(ptr noundef %0, ptr noundef %2, ptr noundef %3, ptr noundef nonnull %11, i32 noundef %14, i32 noundef %15, ptr noundef nonnull %8, ptr noundef %17)
  tail call void @free(ptr noundef nonnull %11) #10
  br label %18

18:                                               ; preds = %10, %7, %13
  ret void
}